target datalayout = "e-m:e-p270:32:32-p271:32:32-p272:64:64-i64:64-i128:128-f80:128-n8:16:32:64-S128"
target triple = "x86_64-pc-linux-gnu"

%struct.FT_Vector_ = type { i64, i64 }
%struct.FT_StrokerRec_ = type { i64, i64, %struct.FT_Vector_, i64, i8, i8, i64, %struct.FT_Vector_, i64, i8, i32, i32, i32, i64, i64, [2 x %struct.FT_StrokeBorderRec_], ptr }
%struct.FT_StrokeBorderRec_ = type { i32, i32, ptr, ptr, i8, i32, ptr, i8 }
%struct.FT_Outline_ = type { i16, i16, ptr, ptr, ptr, i32 }

; Function Attrs: nounwind uwtable
define internal void @ft_stroke_border_export(ptr noundef %0, ptr noundef %1) #0 {
  %3 = alloca ptr, align 8
  %4 = alloca ptr, align 8
  %5 = alloca i32, align 4
  %6 = alloca ptr, align 8
  %7 = alloca ptr, align 8
  %8 = alloca i32, align 4
  %9 = alloca ptr, align 8
  %10 = alloca ptr, align 8
  %11 = alloca i16, align 2
  store ptr %0, ptr %3, align 8
  store ptr %1, ptr %4, align 8
  %12 = load ptr, ptr %3, align 8
  %13 = getelementptr inbounds %struct.FT_StrokeBorderRec_, ptr %12, i32 0, i32 0
  %14 = load i32, ptr %13, align 8
  %15 = icmp ne i32 %14, 0
  br i1 %15, label %16, label %34

16:                                               ; preds = %2
  %17 = load ptr, ptr %4, align 8
  %18 = getelementptr inbounds %struct.FT_Outline_, ptr %17, i32 0, i32 2
  %19 = load ptr, ptr %18, align 8
  %20 = load ptr, ptr %4, align 8
  %21 = getelementptr inbounds %struct.FT_Outline_, ptr %20, i32 0, i32 1
  %22 = load i16, ptr %21, align 2
  %23 = zext i16 %22 to i32
  %24 = sext i32 %23 to i64
  %25 = getelementptr inbounds %struct.FT_Vector_, ptr %19, i64 %24
  %26 = load ptr, ptr %3, align 8
  %27 = getelementptr inbounds %struct.FT_StrokeBorderRec_, ptr %26, i32 0, i32 2
  %28 = load ptr, ptr %27, align 8
  %29 = load ptr, ptr %3, align 8
  %30 = getelementptr inbounds %struct.FT_StrokeBorderRec_, ptr %29, i32 0, i32 0
  %31 = load i32, ptr %30, align 8
  %32 = zext i32 %31 to i64
  %33 = mul i64 %32, 16
  call void @llvm.memcpy.p0.p0.i64(ptr align 8 %25, ptr align 8 %28, i64 %33, i1 false)
  br label %34

34:                                               ; preds = %16, %2
  %35 = load ptr, ptr %3, align 8
  %36 = getelementptr inbounds %struct.FT_StrokeBorderRec_, ptr %35, i32 0, i32 0
  %37 = load i32, ptr %36, align 8
  store i32 %37, ptr %5, align 4
  %38 = load ptr, ptr %3, align 8
  %39 = getelementptr inbounds %struct.FT_StrokeBorderRec_, ptr %38, i32 0, i32 3
  %40 = load ptr, ptr %39, align 8
  store ptr %40, ptr %6, align 8
  %41 = load ptr, ptr %4, align 8
  %42 = getelementptr inbounds %struct.FT_Outline_, ptr %41, i32 0, i32 3
  %43 = load ptr, ptr %42, align 8
  %44 = load ptr, ptr %4, align 8
  %45 = getelementptr inbounds %struct.FT_Outline_, ptr %44, i32 0, i32 1
  %46 = load i16, ptr %45, align 2
  %47 = zext i16 %46 to i32
  %48 = sext i32 %47 to i64
  %49 = getelementptr inbounds i8, ptr %43, i64 %48
  store ptr %49, ptr %7, align 8
  br label %50

50:                                               ; preds = %73, %34
  %51 = load i32, ptr %5, align 4
  %52 = icmp ugt i32 %51, 0
  br i1 %52, label %53, label %80

53:                                               ; preds = %50
  %54 = load ptr, ptr %6, align 8
  %55 = load i8, ptr %54, align 1
  %56 = zext i8 %55 to i32
  %57 = and i32 %56, 1
  %58 = icmp ne i32 %57, 0
  br i1 %58, label %59, label %61

59:                                               ; preds = %53
  %60 = load ptr, ptr %7, align 8
  store i8 1, ptr %60, align 1
  br label %72

61:                                               ; preds = %53
  %62 = load ptr, ptr %6, align 8
  %63 = load i8, ptr %62, align 1
  %64 = zext i8 %63 to i32
  %65 = and i32 %64, 2
  %66 = icmp ne i32 %65, 0
  br i1 %66, label %67, label %69

67:                                               ; preds = %61
  %68 = load ptr, ptr %7, align 8
  store i8 2, ptr %68, align 1
  br label %71

69:                                               ; preds = %61
  %70 = load ptr, ptr %7, align 8
  store i8 0, ptr %70, align 1
  br label %71

71:                                               ; preds = %69, %67
  br label %72

72:                                               ; preds = %71, %59
  br label %73

73:                                               ; preds = %72
  %74 = load i32, ptr %5, align 4
  %75 = add i32 %74, -1
  store i32 %75, ptr %5, align 4
  %76 = load ptr, ptr %6, align 8
  %77 = getelementptr inbounds i8, ptr %76, i32 1
  store ptr %77, ptr %6, align 8
  %78 = load ptr, ptr %7, align 8
  %79 = getelementptr inbounds i8, ptr %78, i32 1
  store ptr %79, ptr %7, align 8
  br label %50, !llvm.loop !14

80:                                               ; preds = %50
  %81 = load ptr, ptr %3, align 8
  %82 = getelementptr inbounds %struct.FT_StrokeBorderRec_, ptr %81, i32 0, i32 0
  %83 = load i32, ptr %82, align 8
  store i32 %83, ptr %8, align 4
  %84 = load ptr, ptr %3, align 8
  %85 = getelementptr inbounds %struct.FT_StrokeBorderRec_, ptr %84, i32 0, i32 3
  %86 = load ptr, ptr %85, align 8
  store ptr %86, ptr %9, align 8
  %87 = load ptr, ptr %4, align 8
  %88 = getelementptr inbounds %struct.FT_Outline_, ptr %87, i32 0, i32 4
  %89 = load ptr, ptr %88, align 8
  %90 = load ptr, ptr %4, align 8
  %91 = getelementptr inbounds %struct.FT_Outline_, ptr %90, i32 0, i32 0
  %92 = load i16, ptr %91, align 8
  %93 = zext i16 %92 to i32
  %94 = sext i32 %93 to i64
  %95 = getelementptr inbounds i16, ptr %89, i64 %94
  store ptr %95, ptr %10, align 8
  %96 = load ptr, ptr %4, align 8
  %97 = getelementptr inbounds %struct.FT_Outline_, ptr %96, i32 0, i32 1
  %98 = load i16, ptr %97, align 2
  store i16 %98, ptr %11, align 2
  br label %99

99:                                               ; preds = %117, %80
  %100 = load i32, ptr %8, align 4
  %101 = icmp ugt i32 %100, 0
  br i1 %101, label %102, label %124

102:                                              ; preds = %99
  %103 = load ptr, ptr %9, align 8
  %104 = load i8, ptr %103, align 1
  %105 = zext i8 %104 to i32
  %106 = and i32 %105, 8
  %107 = icmp ne i32 %106, 0
  br i1 %107, label %108, label %116

108:                                              ; preds = %102
  %109 = load i16, ptr %11, align 2
  %110 = load ptr, ptr %10, align 8
  %111 = getelementptr inbounds i16, ptr %110, i32 1
  store ptr %111, ptr %10, align 8
  store i16 %109, ptr %110, align 2
  %112 = load ptr, ptr %4, align 8
  %113 = getelementptr inbounds %struct.FT_Outline_, ptr %112, i32 0, i32 0
  %114 = load i16, ptr %113, align 8
  %115 = add i16 %114, 1
  store i16 %115, ptr %113, align 8
  br label %116

116:                                              ; preds = %108, %102
  br label %117

117:                                              ; preds = %116
  %118 = load i32, ptr %8, align 4
  %119 = add i32 %118, -1
  store i32 %119, ptr %8, align 4
  %120 = load ptr, ptr %9, align 8
  %121 = getelementptr inbounds i8, ptr %120, i32 1
  store ptr %121, ptr %9, align 8
  %122 = load i16, ptr %11, align 2
  %123 = add i16 %122, 1
  store i16 %123, ptr %11, align 2
  br label %99, !llvm.loop !15

124:                                              ; preds = %99
  %125 = load ptr, ptr %3, align 8
  %126 = getelementptr inbounds %struct.FT_StrokeBorderRec_, ptr %125, i32 0, i32 0
  %127 = load i32, ptr %126, align 8
  %128 = trunc i32 %127 to i16
  %129 = zext i16 %128 to i32
  %130 = load ptr, ptr %4, align 8
  %131 = getelementptr inbounds %struct.FT_Outline_, ptr %130, i32 0, i32 1
  %132 = load i16, ptr %131, align 2
  %133 = zext i16 %132 to i32
  %134 = add nsw i32 %133, %129
  %135 = trunc i32 %134 to i16
  store i16 %135, ptr %131, align 2
  br label %136

136:                                              ; preds = %124
  br label %137

137:                                              ; preds = %136
  ret void
}

; Function Attrs: nounwind uwtable
define void @FT_Stroker_ExportBorder(ptr noundef %0, i32 noundef %1, ptr noundef %2) #0 {
  %4 = alloca ptr, align 8
  %5 = alloca i32, align 4
  %6 = alloca ptr, align 8
  %7 = alloca ptr, align 8
  store ptr %0, ptr %4, align 8
  store i32 %1, ptr %5, align 4
  store ptr %2, ptr %6, align 8
  %8 = load ptr, ptr %4, align 8
  %9 = icmp ne ptr %8, null
  br i1 %9, label %10, label %13

10:                                               ; preds = %3
  %11 = load ptr, ptr %6, align 8
  %12 = icmp ne ptr %11, null
  br i1 %12, label %14, label %13

13:                                               ; preds = %10, %3
  br label %34

14:                                               ; preds = %10
  %15 = load i32, ptr %5, align 4
  %16 = icmp eq i32 %15, 0
  br i1 %16, label %20, label %17

17:                                               ; preds = %14
  %18 = load i32, ptr %5, align 4
  %19 = icmp eq i32 %18, 1
  br i1 %19, label %20, label %34

20:                                               ; preds = %17, %14
  %21 = load ptr, ptr %4, align 8
  %22 = getelementptr inbounds %struct.FT_StrokerRec_, ptr %21, i32 0, i32 15
  %23 = load i32, ptr %5, align 4
  %24 = zext i32 %23 to i64
  %25 = getelementptr inbounds [2 x %struct.FT_StrokeBorderRec_], ptr %22, i64 0, i64 %24
  store ptr %25, ptr %7, align 8
  %26 = load ptr, ptr %7, align 8
  %27 = getelementptr inbounds %struct.FT_StrokeBorderRec_, ptr %26, i32 0, i32 7
  %28 = load i8, ptr %27, align 8
  %29 = icmp ne i8 %28, 0
  br i1 %29, label %30, label %33

30:                                               ; preds = %20
  %31 = load ptr, ptr %7, align 8
  %32 = load ptr, ptr %6, align 8
  call void @ft_stroke_border_export(ptr noundef %31, ptr noundef %32)
  br label %33

33:                                               ; preds = %30, %20
  br label %34

34:                                               ; preds = %33, %17, %13
  ret void
}

; Function Attrs: nounwind uwtable
define void @FT_Stroker_Export(ptr noundef %0, ptr noundef %1) #0 {
  %3 = alloca ptr, align 8
  %4 = alloca ptr, align 8
  store ptr %0, ptr %3, align 8
  store ptr %1, ptr %4, align 8
  %5 = load ptr, ptr %3, align 8
  %6 = load ptr, ptr %4, align 8
  call void @FT_Stroker_ExportBorder(ptr noundef %5, i32 noundef 0, ptr noundef %6)
  %7 = load ptr, ptr %3, align 8
  %8 = load ptr, ptr %4, align 8
  call void @FT_Stroker_ExportBorder(ptr noundef %7, i32 noundef 1, ptr noundef %8)
  ret void
}