; Function Attrs: nofree norecurse nosync nounwind memory(readwrite, inaccessiblemem: none) uwtable
define void @FT_Stroker_Export(ptr noundef readonly %0, ptr noundef %1) local_unnamed_addr #6 {
  %3 = icmp ne ptr %0, null
  %4 = icmp ne ptr %1, null
  %or.cond.i = and i1 %3, %4
  br i1 %or.cond.i, label %5, label %FT_Stroker_ExportBorder.exit37

5:                                                ; preds = %2
  %6 = getelementptr inbounds nuw i8, ptr %0, i64 112
  %7 = getelementptr inbounds nuw i8, ptr %0, i64 152
  %8 = load i8, ptr %7, align 8
  %.not.i = icmp eq i8 %8, 0
  br i1 %.not.i, label %FT_Stroker_ExportBorder.exit.thread, label %9

9:                                                ; preds = %5
  %10 = load i32, ptr %6, align 8
  %.not.i.i = icmp eq i32 %10, 0
  br i1 %.not.i.i, label %.thread.i.i, label %13

.thread.i.i:                                      ; preds = %9
  %11 = getelementptr inbounds nuw i8, ptr %1, i64 2
  %12 = load i16, ptr %11, align 2
  br label %FT_Stroker_ExportBorder.exit.thread40

13:                                               ; preds = %9
  %14 = getelementptr inbounds nuw i8, ptr %1, i64 8
  %15 = load ptr, ptr %14, align 8
  %16 = getelementptr inbounds nuw i8, ptr %1, i64 2
  %17 = load i16, ptr %16, align 2
  %18 = zext i16 %17 to i64
  %19 = getelementptr inbounds nuw %struct.FT_Vector_, ptr %15, i64 %18
  %20 = getelementptr inbounds nuw i8, ptr %0, i64 120
  %21 = load ptr, ptr %20, align 8
  %22 = zext i32 %10 to i64
  %23 = shl nuw nsw i64 %22, 4
  tail call void @llvm.memcpy.p0.p0.i64(ptr align 8 %19, ptr align 8 %21, i64 %23, i1 false)
  %.pre.i.i = load i32, ptr %6, align 8
  %24 = getelementptr inbounds nuw i8, ptr %0, i64 128
  %25 = load i16, ptr %16, align 2
  %.not3944.i.i = icmp eq i32 %.pre.i.i, 0
  br i1 %.not3944.i.i, label %FT_Stroker_ExportBorder.exit.thread40, label %.lr.ph.preheader.i.i

.lr.ph.preheader.i.i:                             ; preds = %13
  %26 = load ptr, ptr %24, align 8
  %27 = getelementptr inbounds nuw i8, ptr %1, i64 16
  %28 = load ptr, ptr %27, align 8
  %29 = zext i16 %25 to i64
  %30 = getelementptr inbounds nuw i8, ptr %28, i64 %29
  br label %.lr.ph.i.i

.lr.ph.i.i:                                       ; preds = %.lr.ph.i.i, %.lr.ph.preheader.i.i
  %.03547.i.i = phi ptr [ %35, %.lr.ph.i.i ], [ %30, %.lr.ph.preheader.i.i ]
  %.03646.i.i = phi ptr [ %34, %.lr.ph.i.i ], [ %26, %.lr.ph.preheader.i.i ]
  %.03745.i.i = phi i32 [ %33, %.lr.ph.i.i ], [ %.pre.i.i, %.lr.ph.preheader.i.i ]
  %31 = load i8, ptr %.03646.i.i, align 1
  %32 = and i8 %31, 1
  %.not42.i.i = icmp eq i8 %32, 0
  %..i.i = and i8 %31, 2
  %.sink.i.i = select i1 %.not42.i.i, i8 %..i.i, i8 1
  store i8 %.sink.i.i, ptr %.03547.i.i, align 1
  %33 = add i32 %.03745.i.i, -1
  %34 = getelementptr inbounds nuw i8, ptr %.03646.i.i, i64 1
  %35 = getelementptr inbounds nuw i8, ptr %.03547.i.i, i64 1
  %.not39.i.i = icmp eq i32 %33, 0
  br i1 %.not39.i.i, label %._crit_edge.i.i, label %.lr.ph.i.i, !llvm.loop !15

._crit_edge.i.i:                                  ; preds = %.lr.ph.i.i
  %.pre56.i.i = load i32, ptr %6, align 8
  %.pre58.i.i = load i16, ptr %16, align 2
  %.not4048.i.i = icmp eq i32 %.pre56.i.i, 0
  br i1 %.not4048.i.i, label %FT_Stroker_ExportBorder.exit, label %.lr.ph54.preheader.i.i

.lr.ph54.preheader.i.i:                           ; preds = %._crit_edge.i.i
  %.pre57.i.i = load ptr, ptr %24, align 8
  %36 = getelementptr inbounds nuw i8, ptr %1, i64 24
  %37 = load ptr, ptr %36, align 8
  %38 = load i16, ptr %1, align 8
  %39 = zext i16 %38 to i64
  %40 = getelementptr inbounds nuw i16, ptr %37, i64 %39
  br label %.lr.ph54.i.i

.lr.ph54.i.i:                                     ; preds = %47, %.lr.ph54.preheader.i.i
  %.052.i.i = phi i16 [ %50, %47 ], [ %.pre58.i.i, %.lr.ph54.preheader.i.i ]
  %.03251.i.i = phi ptr [ %.1.i.i, %47 ], [ %40, %.lr.ph54.preheader.i.i ]
  %.03350.i.i = phi ptr [ %49, %47 ], [ %.pre57.i.i, %.lr.ph54.preheader.i.i ]
  %.03449.i.i = phi i32 [ %48, %47 ], [ %.pre56.i.i, %.lr.ph54.preheader.i.i ]
  %41 = load i8, ptr %.03350.i.i, align 1
  %42 = and i8 %41, 8
  %.not41.i.i = icmp eq i8 %42, 0
  br i1 %.not41.i.i, label %47, label %43

43:                                               ; preds = %.lr.ph54.i.i
  %44 = getelementptr inbounds nuw i8, ptr %.03251.i.i, i64 2
  store i16 %.052.i.i, ptr %.03251.i.i, align 2
  %45 = load i16, ptr %1, align 8
  %46 = add i16 %45, 1
  store i16 %46, ptr %1, align 8
  br label %47

47:                                               ; preds = %43, %.lr.ph54.i.i
  %.1.i.i = phi ptr [ %44, %43 ], [ %.03251.i.i, %.lr.ph54.i.i ]
  %48 = add i32 %.03449.i.i, -1
  %49 = getelementptr inbounds nuw i8, ptr %.03350.i.i, i64 1
  %50 = add i16 %.052.i.i, 1
  %.not40.i.i = icmp eq i32 %48, 0
  br i1 %.not40.i.i, label %._crit_edge55.loopexit.i.i, label %.lr.ph54.i.i, !llvm.loop !16

._crit_edge55.loopexit.i.i:                       ; preds = %47
  %.pre59.i.i = load i32, ptr %6, align 8
  %.pre60.i.i = load i16, ptr %16, align 2
  %51 = trunc i32 %.pre59.i.i to i16
  br label %FT_Stroker_ExportBorder.exit

FT_Stroker_ExportBorder.exit.thread40:            ; preds = %.thread.i.i, %13
  %.ph = phi ptr [ %16, %13 ], [ %11, %.thread.i.i ]
  %.ph39 = phi i16 [ %25, %13 ], [ %12, %.thread.i.i ]
  store i16 %.ph39, ptr %.ph, align 2
  br label %FT_Stroker_ExportBorder.exit.thread

FT_Stroker_ExportBorder.exit:                     ; preds = %._crit_edge.i.i, %._crit_edge55.loopexit.i.i
  %52 = phi i16 [ %.pre60.i.i, %._crit_edge55.loopexit.i.i ], [ %.pre58.i.i, %._crit_edge.i.i ]
  %53 = phi i16 [ %51, %._crit_edge55.loopexit.i.i ], [ 0, %._crit_edge.i.i ]
  %54 = add i16 %53, %52
  store i16 %54, ptr %16, align 2
  br label %FT_Stroker_ExportBorder.exit.thread

FT_Stroker_ExportBorder.exit.thread:              ; preds = %FT_Stroker_ExportBorder.exit, %5, %FT_Stroker_ExportBorder.exit.thread40
  %55 = getelementptr inbounds nuw i8, ptr %0, i64 160
  %56 = getelementptr inbounds nuw i8, ptr %0, i64 200
  %57 = load i8, ptr %56, align 8
  %.not.i5 = icmp eq i8 %57, 0
  br i1 %.not.i5, label %FT_Stroker_ExportBorder.exit37, label %58

58:                                               ; preds = %FT_Stroker_ExportBorder.exit.thread
  %59 = load i32, ptr %55, align 8
  %.not.i.i6 = icmp eq i32 %59, 0
  br i1 %.not.i.i6, label %.thread.i.i36, label %62

.thread.i.i36:                                    ; preds = %58
  %60 = getelementptr inbounds nuw i8, ptr %1, i64 2
  %61 = load i16, ptr %60, align 2
  br label %ft_stroke_border_export.exit.i35

62:                                               ; preds = %58
  %63 = getelementptr inbounds nuw i8, ptr %1, i64 8
  %64 = load ptr, ptr %63, align 8
  %65 = getelementptr inbounds nuw i8, ptr %1, i64 2
  %66 = load i16, ptr %65, align 2
  %67 = zext i16 %66 to i64
  %68 = getelementptr inbounds nuw %struct.FT_Vector_, ptr %64, i64 %67
  %69 = getelementptr inbounds nuw i8, ptr %0, i64 168
  %70 = load ptr, ptr %69, align 8
  %71 = zext i32 %59 to i64
  %72 = shl nuw nsw i64 %71, 4
  tail call void @llvm.memcpy.p0.p0.i64(ptr align 8 %68, ptr align 8 %70, i64 %72, i1 false)
  %.pre.i.i7 = load i32, ptr %55, align 8
  %73 = getelementptr inbounds nuw i8, ptr %0, i64 176
  %74 = load i16, ptr %65, align 2
  %.not3944.i.i8 = icmp eq i32 %.pre.i.i7, 0
  br i1 %.not3944.i.i8, label %ft_stroke_border_export.exit.i35, label %.lr.ph.preheader.i.i9

.lr.ph.preheader.i.i9:                            ; preds = %62
  %75 = load ptr, ptr %73, align 8
  %76 = getelementptr inbounds nuw i8, ptr %1, i64 16
  %77 = load ptr, ptr %76, align 8
  %78 = zext i16 %74 to i64
  %79 = getelementptr inbounds nuw i8, ptr %77, i64 %78
  br label %.lr.ph.i.i10

.lr.ph.i.i10:                                     ; preds = %.lr.ph.i.i10, %.lr.ph.preheader.i.i9
  %.03547.i.i11 = phi ptr [ %84, %.lr.ph.i.i10 ], [ %79, %.lr.ph.preheader.i.i9 ]
  %.03646.i.i12 = phi ptr [ %83, %.lr.ph.i.i10 ], [ %75, %.lr.ph.preheader.i.i9 ]
  %.03745.i.i13 = phi i32 [ %82, %.lr.ph.i.i10 ], [ %.pre.i.i7, %.lr.ph.preheader.i.i9 ]
  %80 = load i8, ptr %.03646.i.i12, align 1
  %81 = and i8 %80, 1
  %.not42.i.i14 = icmp eq i8 %81, 0
  %..i.i15 = and i8 %80, 2
  %.sink.i.i16 = select i1 %.not42.i.i14, i8 %..i.i15, i8 1
  store i8 %.sink.i.i16, ptr %.03547.i.i11, align 1
  %82 = add i32 %.03745.i.i13, -1
  %83 = getelementptr inbounds nuw i8, ptr %.03646.i.i12, i64 1
  %84 = getelementptr inbounds nuw i8, ptr %.03547.i.i11, i64 1
  %.not39.i.i17 = icmp eq i32 %82, 0
  br i1 %.not39.i.i17, label %._crit_edge.i.i18, label %.lr.ph.i.i10, !llvm.loop !15

._crit_edge.i.i18:                                ; preds = %.lr.ph.i.i10
  %.pre56.i.i19 = load i32, ptr %55, align 8
  %.pre58.i.i20 = load i16, ptr %65, align 2
  %.not4048.i.i21 = icmp eq i32 %.pre56.i.i19, 0
  br i1 %.not4048.i.i21, label %ft_stroke_border_export.exit.i35, label %.lr.ph54.preheader.i.i22

.lr.ph54.preheader.i.i22:                         ; preds = %._crit_edge.i.i18
  %.pre57.i.i23 = load ptr, ptr %73, align 8
  %85 = getelementptr inbounds nuw i8, ptr %1, i64 24
  %86 = load ptr, ptr %85, align 8
  %87 = load i16, ptr %1, align 8
  %88 = zext i16 %87 to i64
  %89 = getelementptr inbounds nuw i16, ptr %86, i64 %88
  br label %.lr.ph54.i.i24

.lr.ph54.i.i24:                                   ; preds = %96, %.lr.ph54.preheader.i.i22
  %.052.i.i25 = phi i16 [ %99, %96 ], [ %.pre58.i.i20, %.lr.ph54.preheader.i.i22 ]
  %.03251.i.i26 = phi ptr [ %.1.i.i30, %96 ], [ %89, %.lr.ph54.preheader.i.i22 ]
  %.03350.i.i27 = phi ptr [ %98, %96 ], [ %.pre57.i.i23, %.lr.ph54.preheader.i.i22 ]
  %.03449.i.i28 = phi i32 [ %97, %96 ], [ %.pre56.i.i19, %.lr.ph54.preheader.i.i22 ]
  %90 = load i8, ptr %.03350.i.i27, align 1
  %91 = and i8 %90, 8
  %.not41.i.i29 = icmp eq i8 %91, 0
  br i1 %.not41.i.i29, label %96, label %92

92:                                               ; preds = %.lr.ph54.i.i24
  %93 = getelementptr inbounds nuw i8, ptr %.03251.i.i26, i64 2
  store i16 %.052.i.i25, ptr %.03251.i.i26, align 2
  %94 = load i16, ptr %1, align 8
  %95 = add i16 %94, 1
  store i16 %95, ptr %1, align 8
  br label %96

96:                                               ; preds = %92, %.lr.ph54.i.i24
  %.1.i.i30 = phi ptr [ %93, %92 ], [ %.03251.i.i26, %.lr.ph54.i.i24 ]
  %97 = add i32 %.03449.i.i28, -1
  %98 = getelementptr inbounds nuw i8, ptr %.03350.i.i27, i64 1
  %99 = add i16 %.052.i.i25, 1
  %.not40.i.i31 = icmp eq i32 %97, 0
  br i1 %.not40.i.i31, label %._crit_edge55.loopexit.i.i32, label %.lr.ph54.i.i24, !llvm.loop !16

._crit_edge55.loopexit.i.i32:                     ; preds = %96
  %.pre59.i.i33 = load i32, ptr %55, align 8
  %.pre60.i.i34 = load i16, ptr %65, align 2
  %100 = trunc i32 %.pre59.i.i33 to i16
  br label %ft_stroke_border_export.exit.i35

ft_stroke_border_export.exit.i35:                 ; preds = %._crit_edge55.loopexit.i.i32, %._crit_edge.i.i18, %62, %.thread.i.i36
  %101 = phi ptr [ %65, %._crit_edge55.loopexit.i.i32 ], [ %65, %._crit_edge.i.i18 ], [ %60, %.thread.i.i36 ], [ %65, %62 ]
  %102 = phi i16 [ %.pre60.i.i34, %._crit_edge55.loopexit.i.i32 ], [ %.pre58.i.i20, %._crit_edge.i.i18 ], [ %61, %.thread.i.i36 ], [ %74, %62 ]
  %103 = phi i16 [ %100, %._crit_edge55.loopexit.i.i32 ], [ 0, %._crit_edge.i.i18 ], [ 0, %.thread.i.i36 ], [ 0, %62 ]
  %104 = add i16 %103, %102
  store i16 %104, ptr %101, align 2
  br label %FT_Stroker_ExportBorder.exit37

FT_Stroker_ExportBorder.exit37:                   ; preds = %2, %FT_Stroker_ExportBorder.exit.thread, %ft_stroke_border_export.exit.i35
  ret void
}